; Function Attrs: nounwind uwtable
define dso_local void @ExecEvalRowNotNull(ptr noundef readnone captures(none) %0, ptr noundef captures(none) %1, ptr noundef readnone captures(none) %2) local_unnamed_addr #0 {
  %4 = alloca %struct.HeapTupleData, align 8
  %5 = getelementptr inbounds nuw i8, ptr %1, i64 8
  %6 = load ptr, ptr %5, align 8
  %7 = load i64, ptr %6, align 8
  %8 = getelementptr inbounds nuw i8, ptr %1, i64 16
  %9 = load ptr, ptr %8, align 8
  %10 = load i8, ptr %9, align 1, !range !8, !noundef !9
  %11 = trunc nuw i8 %10 to i1
  call void @llvm.lifetime.start.p0(i64 24, ptr nonnull %4) #18
  store i8 0, ptr %9, align 1
  br i1 %11, label %ExecEvalRowNullInt.exit, label %12

12:                                               ; preds = %3
  %13 = inttoptr i64 %7 to ptr
  %14 = tail call ptr @pg_detoast_datum(ptr noundef %13) #18
  %15 = getelementptr i8, ptr %14, i64 8
  %.val.i = load i32, ptr %15, align 4
  %16 = getelementptr i8, ptr %14, i64 4
  %.val27.i = load i32, ptr %16, align 4
  %17 = getelementptr inbounds nuw i8, ptr %1, i64 24
  %18 = tail call fastcc ptr @get_cached_rowtype(i32 noundef %.val.i, i32 noundef %.val27.i, ptr noundef nonnull %17, ptr noundef null)
  %.val28.i = load i32, ptr %14, align 4
  %19 = lshr i32 %.val28.i, 2
  store i32 %19, ptr %4, align 8
  %20 = getelementptr inbounds nuw i8, ptr %4, i64 16
  store ptr %14, ptr %20, align 8
  %21 = load i32, ptr %18, align 8
  %.not1.i = icmp slt i32 %21, 1
  br i1 %.not1.i, label %ExecEvalRowNullInt.exit, label %.lr.ph.i

.lr.ph.i:                                         ; preds = %12
  %22 = getelementptr i8, ptr %18, i64 33
  br label %.lr.ph.split.i

.lr.ph.split.i:                                   ; preds = %31, %.lr.ph.i
  %23 = phi i32 [ %32, %31 ], [ %21, %.lr.ph.i ]
  %.02.i = phi i32 [ %33, %31 ], [ 1, %.lr.ph.i ]
  %24 = add i32 %.02.i, -1
  %25 = sext i32 %24 to i64
  %.idx.i = shl nsw i64 %25, 4
  %26 = getelementptr i8, ptr %22, i64 %.idx.i
  %27 = load i8, ptr %26, align 1, !range !8, !noundef !9
  %28 = trunc nuw i8 %27 to i1
  br i1 %28, label %31, label %29

29:                                               ; preds = %.lr.ph.split.i
  %30 = call zeroext i1 @heap_attisnull(ptr noundef nonnull %4, i32 noundef %.02.i, ptr noundef nonnull %18) #18
  br i1 %30, label %ExecEvalRowNullInt.exit, label %._crit_edge.i

._crit_edge.i:                                    ; preds = %29
  %.pre.i = load i32, ptr %18, align 8
  br label %31

31:                                               ; preds = %._crit_edge.i, %.lr.ph.split.i
  %32 = phi i32 [ %.pre.i, %._crit_edge.i ], [ %23, %.lr.ph.split.i ]
  %33 = add i32 %.02.i, 1
  %.not.i = icmp sgt i32 %33, %32
  br i1 %.not.i, label %ExecEvalRowNullInt.exit, label %.lr.ph.split.i, !llvm.loop !14

ExecEvalRowNullInt.exit:                          ; preds = %29, %31, %3, %12
  %.sink.i = phi i64 [ 1, %12 ], [ 0, %3 ], [ 1, %31 ], [ 0, %29 ]
  %34 = load ptr, ptr %5, align 8
  store i64 %.sink.i, ptr %34, align 8
  call void @llvm.lifetime.end.p0(i64 24, ptr nonnull %4) #18
  ret void
}